target datalayout = "e-m:e-p270:32:32-p271:32:32-p272:64:64-i64:64-i128:128-f80:128-n8:16:32:64-S128"
target triple = "x86_64-unknown-linux-gnu"

%struct.CryptoDevBackend = type { %struct.Object, i8, i8, %struct.CryptoDevBackendConf, ptr, ptr, %struct.ThrottleState, %struct.ThrottleTimers, %struct.ThrottleConfig, %union.anon }
%struct.Object = type { ptr, ptr, ptr, i32, ptr }
%struct.CryptoDevBackendConf = type { %struct.CryptoDevBackendPeers, i32, i32, i32, i32, i32, i32, i32, i32, i32, i32, i64 }
%struct.CryptoDevBackendPeers = type { [64 x ptr], i32 }
%struct.ThrottleState = type { %struct.ThrottleConfig, i64 }
%struct.ThrottleTimers = type { [2 x ptr], i32, [2 x ptr], ptr }
%struct.ThrottleConfig = type { [6 x %struct.LeakyBucket], i64 }
%struct.LeakyBucket = type { i64, i64, double, double, i64 }
%union.anon = type { %struct.QTailQLink }
%struct.QTailQLink = type { ptr, ptr }
%struct.CryptoDevBackendBuiltin = type { %struct.CryptoDevBackend, [256 x ptr] }
%struct.CryptoDevBackendBuiltinSession = type { ptr, i8, i8, ptr, %union.anon.4 }
%union.anon.4 = type { %struct.QTailQLink }

@.str = private unnamed_addr constant [26 x i8] c"cryptodev-backend-builtin\00", align 1
@.str.3 = private unnamed_addr constant [37 x i8] c"../qemu/backends/cryptodev-builtin.c\00", align 1
@__func__.CRYPTODEV_BACKEND_BUILTIN = private unnamed_addr constant [26 x i8] c"CRYPTODEV_BACKEND_BUILTIN\00", align 1
@.str.15 = private unnamed_addr constant [63 x i8] c"session_id < MAX_NUM_SESSIONS && builtin->sessions[session_id]\00", align 1
@__PRETTY_FUNCTION__.cryptodev_builtin_close_session = private unnamed_addr constant [109 x i8] c"int cryptodev_builtin_close_session(CryptoDevBackend *, uint64_t, uint32_t, CryptoDevCompletionFunc, void *)\00", align 1

; Function Attrs: nounwind sspstrong uwtable
define internal ptr @CRYPTODEV_BACKEND_BUILTIN(ptr noundef %obj) #0 {
entry:
  %obj.addr = alloca ptr, align 8
  store ptr %obj, ptr %obj.addr, align 8
  %0 = load ptr, ptr %obj.addr, align 8
  %call = call ptr @object_dynamic_cast_assert(ptr noundef %0, ptr noundef @.str, ptr noundef @.str.3, i32 noundef 39, ptr noundef @__func__.CRYPTODEV_BACKEND_BUILTIN)
  ret ptr %call
}

; Function Attrs: nounwind sspstrong uwtable
define internal i32 @cryptodev_builtin_close_session(ptr noundef %backend, i64 noundef %session_id, i32 noundef %queue_index, ptr noundef %cb, ptr noundef %opaque) #0 {
entry:
  %backend.addr = alloca ptr, align 8
  %session_id.addr = alloca i64, align 8
  %queue_index.addr = alloca i32, align 4
  %cb.addr = alloca ptr, align 8
  %opaque.addr = alloca ptr, align 8
  %builtin = alloca ptr, align 8
  %session = alloca ptr, align 8
  store ptr %backend, ptr %backend.addr, align 8
  store i64 %session_id, ptr %session_id.addr, align 8
  store i32 %queue_index, ptr %queue_index.addr, align 4
  store ptr %cb, ptr %cb.addr, align 8
  store ptr %opaque, ptr %opaque.addr, align 8
  %0 = load ptr, ptr %backend.addr, align 8
  %call = call ptr @CRYPTODEV_BACKEND_BUILTIN(ptr noundef %0)
  store ptr %call, ptr %builtin, align 8
  %1 = load i64, ptr %session_id.addr, align 8
  %cmp = icmp ult i64 %1, 256
  br i1 %cmp, label %land.lhs.true, label %if.else

land.lhs.true:                                    ; preds = %entry
  %2 = load ptr, ptr %builtin, align 8
  %sessions = getelementptr inbounds %struct.CryptoDevBackendBuiltin, ptr %2, i32 0, i32 1
  %3 = load i64, ptr %session_id.addr, align 8
  %arrayidx = getelementptr [256 x ptr], ptr %sessions, i64 0, i64 %3
  %4 = load ptr, ptr %arrayidx, align 8
  %tobool = icmp ne ptr %4, null
  br i1 %tobool, label %if.then, label %if.else

if.then:                                          ; preds = %land.lhs.true
  br label %if.end

if.else:                                          ; preds = %land.lhs.true, %entry
  call void @__assert_fail(ptr noundef @.str.15, ptr noundef @.str.3, i32 noundef 430, ptr noundef @__PRETTY_FUNCTION__.cryptodev_builtin_close_session) #4
  unreachable

if.end:                                           ; preds = %if.then
  %5 = load ptr, ptr %builtin, align 8
  %sessions1 = getelementptr inbounds %struct.CryptoDevBackendBuiltin, ptr %5, i32 0, i32 1
  %6 = load i64, ptr %session_id.addr, align 8
  %arrayidx2 = getelementptr [256 x ptr], ptr %sessions1, i64 0, i64 %6
  %7 = load ptr, ptr %arrayidx2, align 8
  store ptr %7, ptr %session, align 8
  %8 = load ptr, ptr %session, align 8
  %cipher = getelementptr inbounds %struct.CryptoDevBackendBuiltinSession, ptr %8, i32 0, i32 0
  %9 = load ptr, ptr %cipher, align 8
  %tobool3 = icmp ne ptr %9, null
  br i1 %tobool3, label %if.then4, label %if.else6

if.then4:                                         ; preds = %if.end
  %10 = load ptr, ptr %session, align 8
  %cipher5 = getelementptr inbounds %struct.CryptoDevBackendBuiltinSession, ptr %10, i32 0, i32 0
  %11 = load ptr, ptr %cipher5, align 8
  call void @qcrypto_cipher_free(ptr noundef %11)
  br label %if.end11

if.else6:                                         ; preds = %if.end
  %12 = load ptr, ptr %session, align 8
  %akcipher = getelementptr inbounds %struct.CryptoDevBackendBuiltinSession, ptr %12, i32 0, i32 3
  %13 = load ptr, ptr %akcipher, align 8
  %tobool7 = icmp ne ptr %13, null
  br i1 %tobool7, label %if.then8, label %if.end10

if.then8:                                         ; preds = %if.else6
  %14 = load ptr, ptr %session, align 8
  %akcipher9 = getelementptr inbounds %struct.CryptoDevBackendBuiltinSession, ptr %14, i32 0, i32 3
  %15 = load ptr, ptr %akcipher9, align 8
  call void @qcrypto_akcipher_free(ptr noundef %15)
  br label %if.end10

if.end10:                                         ; preds = %if.then8, %if.else6
  br label %if.end11

if.end11:                                         ; preds = %if.end10, %if.then4
  %16 = load ptr, ptr %session, align 8
  call void @g_free(ptr noundef %16)
  %17 = load ptr, ptr %builtin, align 8
  %sessions12 = getelementptr inbounds %struct.CryptoDevBackendBuiltin, ptr %17, i32 0, i32 1
  %18 = load i64, ptr %session_id.addr, align 8
  %arrayidx13 = getelementptr [256 x ptr], ptr %sessions12, i64 0, i64 %18
  store ptr null, ptr %arrayidx13, align 8
  %19 = load ptr, ptr %cb.addr, align 8
  %tobool14 = icmp ne ptr %19, null
  br i1 %tobool14, label %if.then15, label %if.end16

if.then15:                                        ; preds = %if.end11
  %20 = load ptr, ptr %cb.addr, align 8
  %21 = load ptr, ptr %opaque.addr, align 8
  call void %20(ptr noundef %21, i32 noundef 0)
  br label %if.end16

if.end16:                                         ; preds = %if.then15, %if.end11
  ret i32 0
}