; Function Attrs: nounwind sspstrong uwtable
define internal noundef i32 @cryptodev_builtin_close_session(ptr noundef %backend, i64 noundef %session_id, i32 %queue_index, ptr noundef readonly %cb, ptr noundef %opaque) #0 {
entry:
  %call.i = tail call ptr @object_dynamic_cast_assert(ptr noundef %backend, ptr noundef nonnull @.str, ptr noundef nonnull @.str.3, i32 noundef 39, ptr noundef nonnull @__func__.CRYPTODEV_BACKEND_BUILTIN) #6
  %cmp = icmp ult i64 %session_id, 256
  br i1 %cmp, label %land.lhs.true, label %if.else

land.lhs.true:                                    ; preds = %entry
  %sessions = getelementptr inbounds nuw i8, ptr %call.i, i64 1200
  %arrayidx = getelementptr [256 x ptr], ptr %sessions, i64 0, i64 %session_id
  %0 = load ptr, ptr %arrayidx, align 8
  %tobool.not = icmp eq ptr %0, null
  br i1 %tobool.not, label %if.else, label %if.end

if.else:                                          ; preds = %land.lhs.true, %entry
  tail call void @__assert_fail(ptr noundef nonnull @.str.15, ptr noundef nonnull @.str.3, i32 noundef 430, ptr noundef nonnull @__PRETTY_FUNCTION__.cryptodev_builtin_close_session) #7
  unreachable

if.end:                                           ; preds = %land.lhs.true
  %1 = load ptr, ptr %0, align 8
  %tobool3.not = icmp eq ptr %1, null
  br i1 %tobool3.not, label %if.else6, label %if.then4

if.then4:                                         ; preds = %if.end
  tail call void @qcrypto_cipher_free(ptr noundef nonnull %1) #6
  br label %if.end11

if.else6:                                         ; preds = %if.end
  %akcipher = getelementptr inbounds nuw i8, ptr %0, i64 16
  %2 = load ptr, ptr %akcipher, align 8
  %tobool7.not = icmp eq ptr %2, null
  br i1 %tobool7.not, label %if.end11, label %if.then8

if.then8:                                         ; preds = %if.else6
  tail call void @qcrypto_akcipher_free(ptr noundef nonnull %2) #6
  br label %if.end11

if.end11:                                         ; preds = %if.else6, %if.then8, %if.then4
  tail call void @g_free(ptr noundef nonnull %0) #6
  store ptr null, ptr %arrayidx, align 8
  %tobool14.not = icmp eq ptr %cb, null
  br i1 %tobool14.not, label %if.end16, label %if.then15

if.then15:                                        ; preds = %if.end11
  tail call void %cb(ptr noundef %opaque, i32 noundef 0) #6
  br label %if.end16

if.end16:                                         ; preds = %if.then15, %if.end11
  ret i32 0
}